; Function Attrs: mustprogress uwtable
define noundef zeroext i1 @_ZNK5arrow15DictionaryArray17CanCompareIndicesERKS0_(ptr noundef nonnull align 8 dereferenceable(72) %this, ptr noundef nonnull align 8 dereferenceable(72) %other) local_unnamed_addr #1 align 2 {
entry:
  %ref.tmp44 = alloca %"class.arrow::EqualOptions", align 8
  %indices_.i = getelementptr inbounds i8, ptr %this, i64 40
  %0 = load ptr, ptr %indices_.i, align 8
  %data_.i = getelementptr inbounds i8, ptr %0, i64 8
  %1 = load ptr, ptr %data_.i, align 8
  %2 = load ptr, ptr %1, align 8
  %indices_.i3 = getelementptr inbounds i8, ptr %other, i64 40
  %3 = load ptr, ptr %indices_.i3, align 8
  %data_.i4 = getelementptr inbounds i8, ptr %3, i64 8
  %4 = load ptr, ptr %data_.i4, align 8
  %call31 = tail call noundef zeroext i1 @_ZNK5arrow8DataType6EqualsERKSt10shared_ptrIS0_Eb(ptr noundef nonnull align 8 dereferenceable(72) %2, ptr noundef nonnull align 8 dereferenceable(16) %4, i1 noundef zeroext false)
  br i1 %call31, label %if.end, label %return

if.end:                                           ; preds = %entry
  %call33 = tail call noundef nonnull align 8 dereferenceable(16) ptr @_ZNK5arrow15DictionaryArray10dictionaryEv(ptr noundef nonnull align 8 dereferenceable(72) %this)
  %5 = load ptr, ptr %call33, align 8
  %data_.i5 = getelementptr inbounds i8, ptr %5, i64 8
  %6 = load ptr, ptr %data_.i5, align 8
  %length.i = getelementptr inbounds i8, ptr %6, i64 16
  %7 = load i64, ptr %length.i, align 8
  %call37 = tail call noundef nonnull align 8 dereferenceable(16) ptr @_ZNK5arrow15DictionaryArray10dictionaryEv(ptr noundef nonnull align 8 dereferenceable(72) %other)
  %8 = load ptr, ptr %call37, align 8
  %data_.i6 = getelementptr inbounds i8, ptr %8, i64 8
  %9 = load ptr, ptr %data_.i6, align 8
  %length.i7 = getelementptr inbounds i8, ptr %9, i64 16
  %10 = load i64, ptr %length.i7, align 8
  %.sroa.speculated = tail call i64 @llvm.smin.i64(i64 %10, i64 %7)
  %call41 = tail call noundef nonnull align 8 dereferenceable(16) ptr @_ZNK5arrow15DictionaryArray10dictionaryEv(ptr noundef nonnull align 8 dereferenceable(72) %this)
  %11 = load ptr, ptr %call41, align 8
  %call43 = tail call noundef nonnull align 8 dereferenceable(16) ptr @_ZNK5arrow15DictionaryArray10dictionaryEv(ptr noundef nonnull align 8 dereferenceable(72) %other)
  %12 = getelementptr inbounds i8, ptr %ref.tmp44, i64 8
  store i64 256, ptr %12, align 8, !alias.scope !29
  store double 1.000000e-05, ptr %ref.tmp44, align 8, !alias.scope !29
  %diff_sink_.i.i = getelementptr inbounds i8, ptr %ref.tmp44, i64 16
  store ptr null, ptr %diff_sink_.i.i, align 8, !alias.scope !29
  %call45 = call noundef zeroext i1 @_ZNK5arrow5Array11RangeEqualsERKSt10shared_ptrIS0_ElllRKNS_12EqualOptionsE(ptr noundef nonnull align 8 dereferenceable(32) %11, ptr noundef nonnull align 8 dereferenceable(16) %call43, i64 noundef 0, i64 noundef %.sroa.speculated, i64 noundef 0, ptr noundef nonnull align 8 dereferenceable(24) %ref.tmp44)
  br label %return

return:                                           ; preds = %entry, %if.end
  %retval.0 = phi i1 [ %call45, %if.end ], [ false, %entry ]
  ret i1 %retval.0
}